; Function Attrs: mustprogress nounwind uwtable
define dso_local void @_ZN4llvm21AArch64TargetStreamer6finishEv(ptr nocapture noundef nonnull readonly align 8 dereferenceable(24) %0) unnamed_addr #0 align 2 {
  %2 = load i8, ptr getelementptr inbounds (i8, ptr @_ZL15MarkBTIProperty, i64 128), align 8
  %3 = trunc i8 %2 to i1
  br i1 %3, label %4, label %5

4:                                                ; preds = %1
  tail call void @_ZN4llvm21AArch64TargetStreamer15emitNoteSectionEjmm(ptr noundef nonnull align 8 dereferenceable(24) %0, i32 noundef 1, i64 noundef -1, i64 noundef -1)
  br label %5

5:                                                ; preds = %4, %1
  ret void
}